target datalayout = "e-m:e-p270:32:32-p271:32:32-p272:64:64-i64:64-i128:128-f80:128-n8:16:32:64-S128"
target triple = "x86_64-pc-linux-gnu"

@_ZL24kCustomExtensionContents = internal constant [17 x i8] c"custom extension\00", align 16

; Function Attrs: mustprogress nounwind uwtable
define internal noundef i32 @_ZL28CustomExtensionParseCallbackP6ssl_stjPKhmPiPv(ptr noundef %0, i32 noundef %1, ptr noundef %2, i64 noundef %3, ptr noundef %4, ptr noundef %5) #4 {
  %7 = alloca i32, align 4
  %8 = alloca ptr, align 8
  %9 = alloca i32, align 4
  %10 = alloca ptr, align 8
  %11 = alloca i64, align 8
  %12 = alloca ptr, align 8
  %13 = alloca ptr, align 8
  store ptr %0, ptr %8, align 8, !tbaa !204
  store i32 %1, ptr %9, align 4, !tbaa !6
  store ptr %2, ptr %10, align 8, !tbaa !13
  store i64 %3, ptr %11, align 8, !tbaa !28
  store ptr %4, ptr %12, align 8, !tbaa !206
  store ptr %5, ptr %13, align 8, !tbaa !25
  %14 = load i32, ptr %9, align 4, !tbaa !6
  %15 = icmp ne i32 %14, 1234
  br i1 %15, label %19, label %16

16:                                               ; preds = %6
  %17 = load ptr, ptr %13, align 8, !tbaa !25
  %18 = icmp ne ptr %17, inttoptr (i64 1235 to ptr)
  br i1 %18, label %19, label %20

19:                                               ; preds = %16, %6
  call void @abort() #21
  unreachable

20:                                               ; preds = %16
  %21 = load i64, ptr %11, align 8, !tbaa !28
  %22 = icmp ne i64 %21, 16
  br i1 %22, label %28, label %23

23:                                               ; preds = %20
  %24 = load ptr, ptr %10, align 8, !tbaa !13
  %25 = load i64, ptr %11, align 8, !tbaa !28
  %26 = call i32 @memcmp(ptr noundef %24, ptr noundef @_ZL24kCustomExtensionContents, i64 noundef %25) #23
  %27 = icmp ne i32 %26, 0
  br i1 %27, label %28, label %30

28:                                               ; preds = %23, %20
  %29 = load ptr, ptr %12, align 8, !tbaa !206
  store i32 50, ptr %29, align 4, !tbaa !6
  store i32 0, ptr %7, align 4
  br label %31

30:                                               ; preds = %23
  store i32 1, ptr %7, align 4
  br label %31

31:                                               ; preds = %30, %28
  %32 = load i32, ptr %7, align 4
  ret i32 %32
}