; Function Attrs: mustprogress nofree nounwind uwtable
define internal noundef range(i32 0, 2) i32 @_ZL28CustomExtensionParseCallbackP6ssl_stjPKhmPiPv(ptr readnone captures(none) %0, i32 noundef %1, ptr noundef readonly captures(none) %2, i64 noundef %3, ptr noundef writeonly captures(none) %4, ptr noundef readnone captures(address) %5) #11 {
  %7 = icmp ne i32 %1, 1234
  %8 = icmp ne ptr %5, inttoptr (i64 1235 to ptr)
  %or.cond = or i1 %7, %8
  br i1 %or.cond, label %9, label %10

9:                                                ; preds = %6
  tail call void @abort() #30
  unreachable

10:                                               ; preds = %6
  %.not = icmp eq i64 %3, 16
  br i1 %.not, label %11, label %12

11:                                               ; preds = %10
  %bcmp = tail call i32 @bcmp(ptr noundef nonnull dereferenceable(16) %2, ptr noundef nonnull dereferenceable(16) @_ZL24kCustomExtensionContents, i64 16)
  %.not8 = icmp eq i32 %bcmp, 0
  br i1 %.not8, label %13, label %12

12:                                               ; preds = %11, %10
  store i32 50, ptr %4, align 4, !tbaa !6
  br label %13

13:                                               ; preds = %11, %12
  %.0 = phi i32 [ 0, %12 ], [ 1, %11 ]
  ret i32 %.0
}